; Function Attrs: nofree norecurse nosync nounwind memory(readwrite, inaccessiblemem: none) uwtable
define void @Emb_ManCleanTravId(ptr noundef readonly captures(none) %0) local_unnamed_addr #7 {
  %2 = getelementptr i8, ptr %0, i64 40
  %3 = getelementptr inbounds nuw i8, ptr %0, i64 48
  %4 = load i32, ptr %3, align 8, !tbaa !46
  %5 = icmp sgt i32 %4, 0
  br i1 %5, label %.lr.ph, label %.critedge

.lr.ph:                                           ; preds = %1, %6
  %.09 = phi i32 [ %13, %6 ], [ 0, %1 ]
  %.val = load ptr, ptr %2, align 8, !tbaa !47
  %.not = icmp eq ptr %.val, null
  br i1 %.not, label %.critedge, label %6

6:                                                ; preds = %.lr.ph
  %7 = zext i32 %.09 to i64
  %8 = getelementptr inbounds nuw i32, ptr %.val, i64 %7
  %9 = getelementptr inbounds nuw i8, ptr %8, i64 12
  store i32 0, ptr %9, align 4, !tbaa !8
  %.val7 = load i32, ptr %8, align 4
  %10 = getelementptr i8, ptr %8, i64 4
  %.val8 = load i32, ptr %10, align 4, !tbaa !52
  %11 = lshr i32 %.val7, 4
  %narrow.i = add i32 %.09, 5
  %12 = add i32 %narrow.i, %11
  %13 = add i32 %12, %.val8
  %14 = load i32, ptr %3, align 8, !tbaa !46
  %15 = icmp slt i32 %13, %14
  br i1 %15, label %.lr.ph, label %.critedge, !llvm.loop !70

.critedge:                                        ; preds = %.lr.ph, %6, %1
  ret void
}